; Function Attrs: nounwind uwtable
define range(i32 0, 2) i32 @Inter_ManCheckInitialState(ptr noundef %0) local_unnamed_addr #0 {
  %2 = getelementptr i8, ptr %0, i64 104
  %.val = load i32, ptr %2, align 8, !tbaa !3
  %3 = tail call ptr @Cnf_Derive(ptr noundef %0, i32 noundef %.val) #9
  %4 = tail call ptr @Cnf_DataWriteIntoSolver(ptr noundef %3, i32 noundef 1, i32 noundef 1) #9
  %5 = icmp eq ptr %4, null
  br i1 %5, label %6, label %7

6:                                                ; preds = %1
  tail call void @Cnf_DataFree(ptr noundef %3) #9
  br label %46

7:                                                ; preds = %1
  %8 = tail call i32 @sat_solver_solve(ptr noundef nonnull %4, ptr noundef null, ptr noundef null, i64 noundef 0, i64 noundef 0, i64 noundef 0, i64 noundef 0) #9
  %9 = icmp eq i32 %8, 1
  br i1 %9, label %10, label %.critedge

10:                                               ; preds = %7
  %.val26 = load i32, ptr %2, align 8, !tbaa !3
  %11 = getelementptr i8, ptr %0, i64 108
  %.val28 = load i32, ptr %11, align 4, !tbaa !21
  %12 = tail call ptr @Abc_CexAlloc(i32 noundef %.val26, i32 noundef %.val28, i32 noundef 1) #9
  %13 = getelementptr inbounds nuw i8, ptr %0, i64 408
  store ptr %12, ptr %13, align 8, !tbaa !22
  %.val2933 = load i32, ptr %11, align 4, !tbaa !21
  %14 = icmp sgt i32 %.val2933, 0
  br i1 %14, label %.lr.ph, label %.critedge

.lr.ph:                                           ; preds = %10
  %15 = getelementptr inbounds nuw i8, ptr %0, i64 16
  %16 = load ptr, ptr %15, align 8, !tbaa !23
  %17 = getelementptr i8, ptr %16, i64 8
  %.val30 = load ptr, ptr %17, align 8, !tbaa !24
  %18 = getelementptr inbounds nuw i8, ptr %3, i64 32
  %19 = load ptr, ptr %18, align 8, !tbaa !26
  %20 = getelementptr i8, ptr %4, i64 328
  %.val32 = load ptr, ptr %20, align 8, !tbaa !29
  %21 = getelementptr inbounds nuw i8, ptr %12, i64 20
  br label %22

22:                                               ; preds = %.lr.ph, %42
  %.val2936 = phi i32 [ %.val2933, %.lr.ph ], [ %.val29, %42 ]
  %indvars.iv = phi i64 [ 0, %.lr.ph ], [ %indvars.iv.next, %42 ]
  %23 = getelementptr inbounds nuw ptr, ptr %.val30, i64 %indvars.iv
  %24 = load ptr, ptr %23, align 8, !tbaa !40
  %25 = getelementptr i8, ptr %24, i64 36
  %.val31 = load i32, ptr %25, align 4, !tbaa !41
  %26 = sext i32 %.val31 to i64
  %27 = getelementptr inbounds i32, ptr %19, i64 %26
  %28 = load i32, ptr %27, align 4, !tbaa !42
  %29 = sext i32 %28 to i64
  %30 = getelementptr inbounds i32, ptr %.val32, i64 %29
  %31 = load i32, ptr %30, align 4, !tbaa !42
  %.not = icmp eq i32 %31, 1
  br i1 %.not, label %32, label %42

32:                                               ; preds = %22
  %.val27 = load i32, ptr %2, align 8, !tbaa !3
  %33 = trunc nuw nsw i64 %indvars.iv to i32
  %34 = add nsw i32 %.val27, %33
  %35 = and i32 %34, 31
  %36 = shl nuw i32 1, %35
  %37 = ashr i32 %34, 5
  %38 = sext i32 %37 to i64
  %39 = getelementptr inbounds i32, ptr %21, i64 %38
  %40 = load i32, ptr %39, align 4, !tbaa !42
  %41 = or i32 %36, %40
  store i32 %41, ptr %39, align 4, !tbaa !42
  %.val29.pre = load i32, ptr %11, align 4, !tbaa !21
  br label %42

42:                                               ; preds = %22, %32
  %.val29 = phi i32 [ %.val2936, %22 ], [ %.val29.pre, %32 ]
  %indvars.iv.next = add nuw nsw i64 %indvars.iv, 1
  %43 = sext i32 %.val29 to i64
  %44 = icmp slt i64 %indvars.iv.next, %43
  br i1 %44, label %22, label %.critedge, !llvm.loop !43

.critedge:                                        ; preds = %42, %10, %7
  tail call void @Cnf_DataFree(ptr noundef %3) #9
  tail call void @sat_solver_delete(ptr noundef nonnull %4) #9
  %45 = zext i1 %9 to i32
  br label %46

46:                                               ; preds = %.critedge, %6
  %.0 = phi i32 [ 0, %6 ], [ %45, %.critedge ]
  ret i32 %.0
}